target datalayout = "e-m:e-p270:32:32-p271:32:32-p272:64:64-i64:64-i128:128-f80:128-n8:16:32:64-S128"
target triple = "x86_64-pc-linux-gnu"

%"struct.cv::Ptr" = type { %"class.std::shared_ptr" }
%"class.std::shared_ptr" = type { %"class.std::__shared_ptr" }
%"class.std::__shared_ptr" = type { ptr, %"class.std::__shared_count" }
%"class.std::__shared_count" = type { ptr }
%"struct.cv::Ptr.0" = type { %"class.std::shared_ptr.1" }
%"class.std::shared_ptr.1" = type { %"class.std::__shared_ptr.2" }
%"class.std::__shared_ptr.2" = type { ptr, %"class.std::__shared_count" }
%"struct.cv::Ptr.4" = type { %"class.std::shared_ptr.5" }
%"class.std::shared_ptr.5" = type { %"class.std::__shared_ptr.6" }
%"class.std::__shared_ptr.6" = type { ptr, %"class.std::__shared_count" }
%"struct.cv::Ptr.8" = type { %"class.std::shared_ptr.9" }
%"class.std::shared_ptr.9" = type { %"class.std::__shared_ptr.10" }
%"class.std::__shared_ptr.10" = type { ptr, %"class.std::__shared_count" }
%"struct.cv::Ptr.12" = type { %"class.std::shared_ptr.13" }
%"class.std::shared_ptr.13" = type { %"class.std::__shared_ptr.14" }
%"class.std::__shared_ptr.14" = type { ptr, %"class.std::__shared_count" }
%"class.cv::videostab::StabilizerBase" = type { ptr, %"struct.cv::Ptr", %"struct.cv::Ptr.0", %"struct.cv::Ptr.0", %"struct.cv::Ptr.4", %"struct.cv::Ptr.8", %"struct.cv::Ptr.12", i32, float, i8, i32, %"class.cv::Size_", %"class.cv::Mat", i32, i32, i8, %"class.cv::Mat", i8, %"class.cv::Mat", %"class.cv::Mat", %"class.std::vector", %"class.std::vector", %"class.std::vector.16", %"class.std::vector", %"class.std::vector", %"class.std::vector", i64 }
%"class.cv::Size_" = type { i32, i32 }
%"class.cv::Mat" = type { i32, i32, i32, i32, ptr, ptr, ptr, ptr, ptr, ptr, %"struct.cv::MatSize", %"struct.cv::MatStep" }
%"struct.cv::MatSize" = type { ptr }
%"struct.cv::MatStep" = type { ptr, [2 x i64] }
%"class.std::vector.16" = type { %"struct.std::_Vector_base.17" }
%"struct.std::_Vector_base.17" = type { %"struct.std::_Vector_base<float, std::allocator<float>>::_Vector_impl" }
%"struct.std::_Vector_base<float, std::allocator<float>>::_Vector_impl" = type { %"struct.std::_Vector_base<float, std::allocator<float>>::_Vector_impl_data" }
%"struct.std::_Vector_base<float, std::allocator<float>>::_Vector_impl_data" = type { ptr, ptr, ptr }
%"class.std::vector" = type { %"struct.std::_Vector_base" }
%"struct.std::_Vector_base" = type { %"struct.std::_Vector_base<cv::Mat, std::allocator<cv::Mat>>::_Vector_impl" }
%"struct.std::_Vector_base<cv::Mat, std::allocator<cv::Mat>>::_Vector_impl" = type { %"struct.std::_Vector_base<cv::Mat, std::allocator<cv::Mat>>::_Vector_impl_data" }
%"struct.std::_Vector_base<cv::Mat, std::allocator<cv::Mat>>::_Vector_impl_data" = type { ptr, ptr, ptr }

@.str.2 = private unnamed_addr constant [28 x i8] c"\0Aprocessing time: %.3f sec\0A\00", align 1

; Function Attrs: mustprogress nounwind uwtable
define linkonce_odr hidden noundef ptr @_ZNKSt12__shared_ptrIN2cv9videostab4ILogELN9__gnu_cxx12_Lock_policyE2EE3getEv(ptr noundef nonnull align 8 dereferenceable(16) %0) #6 comdat align 2 {
  %2 = alloca ptr, align 8
  store ptr %0, ptr %2, align 8, !tbaa !81
  %3 = load ptr, ptr %2, align 8
  %4 = getelementptr inbounds nuw %"class.std::__shared_ptr", ptr %3, i32 0, i32 0
  %5 = load ptr, ptr %4, align 8, !tbaa !232
  ret ptr %5
}

; Function Attrs: mustprogress nounwind uwtable
define linkonce_odr hidden noundef ptr @_ZNK2cv3PtrINS_9videostab4ILogEEptEv(ptr noundef nonnull align 8 dereferenceable(16) %0) #6 comdat align 2 {
  %2 = alloca ptr, align 8
  store ptr %0, ptr %2, align 8, !tbaa !61
  %3 = load ptr, ptr %2, align 8
  %4 = call noundef ptr @_ZNKSt12__shared_ptrIN2cv9videostab4ILogELN9__gnu_cxx12_Lock_policyE2EE3getEv(ptr noundef nonnull align 8 dereferenceable(16) %3) #3
  ret ptr %4
}

; Function Attrs: mustprogress uwtable
define void @_ZN2cv9videostab14StabilizerBase17logProcessingTimeEv(ptr noundef nonnull align 8 dereferenceable(688) %0) #4 align 2 {
  %2 = alloca ptr, align 8
  %3 = alloca i64, align 8
  store ptr %0, ptr %2, align 8, !tbaa !3
  %4 = load ptr, ptr %2, align 8
  call void @llvm.lifetime.start.p0(i64 8, ptr %3) #3
  %5 = call i64 @clock() #3
  %6 = getelementptr inbounds nuw %"class.cv::videostab::StabilizerBase", ptr %4, i32 0, i32 26
  %7 = load i64, ptr %6, align 8, !tbaa !60
  %8 = sub nsw i64 %5, %7
  store i64 %8, ptr %3, align 8, !tbaa !117
  %9 = getelementptr inbounds nuw %"class.cv::videostab::StabilizerBase", ptr %4, i32 0, i32 1
  %10 = call noundef ptr @_ZNK2cv3PtrINS_9videostab4ILogEEptEv(ptr noundef nonnull align 8 dereferenceable(16) %9) #3
  %11 = load i64, ptr %3, align 8, !tbaa !117
  %12 = sitofp i64 %11 to double
  %13 = fdiv double %12, 1.000000e+06
  %14 = load ptr, ptr %10, align 8, !tbaa !8
  %15 = getelementptr inbounds ptr, ptr %14, i64 2
  %16 = load ptr, ptr %15, align 8
  call void (ptr, ptr, ...) %16(ptr noundef nonnull align 8 dereferenceable(8) %10, ptr noundef @.str.2, double noundef %13)
  call void @llvm.lifetime.end.p0(i64 8, ptr %3) #3
  ret void
}