; Function Attrs: mustprogress uwtable
define void @_ZN2cv9videostab14StabilizerBase17logProcessingTimeEv(ptr noundef nonnull readonly align 8 captures(none) dereferenceable(688) %0) local_unnamed_addr #3 align 2 {
  %2 = tail call i64 @clock() #23
  %3 = getelementptr inbounds nuw i8, ptr %0, i64 680
  %4 = load i64, ptr %3, align 8, !tbaa !110
  %5 = sub nsw i64 %2, %4
  %6 = getelementptr inbounds nuw i8, ptr %0, i64 8
  %7 = load ptr, ptr %6, align 8, !tbaa !19
  %8 = sitofp i64 %5 to double
  %9 = fdiv double %8, 1.000000e+06
  %10 = load ptr, ptr %7, align 8, !tbaa !3
  %11 = getelementptr inbounds nuw i8, ptr %10, i64 16
  %12 = load ptr, ptr %11, align 8
  tail call void (ptr, ptr, ...) %12(ptr noundef nonnull align 8 dereferenceable(8) %7, ptr noundef nonnull @.str.2, double noundef %9)
  ret void
}